; Function Attrs: nounwind uwtable
define internal void @s_dealloc(ptr noundef %0) #0 {
  %2 = getelementptr i8, ptr %0, i64 8
  %.val12 = load ptr, ptr %2, align 8, !tbaa !24
  tail call void @PyObject_GC_UnTrack(ptr noundef %0) #7
  %3 = getelementptr inbounds nuw i8, ptr %0, i64 48
  %4 = load ptr, ptr %3, align 8, !tbaa !70
  %.not = icmp eq ptr %4, null
  br i1 %.not, label %6, label %5

5:                                                ; preds = %1
  tail call void @PyObject_ClearWeakRefs(ptr noundef nonnull %0) #7
  br label %6

6:                                                ; preds = %5, %1
  %7 = getelementptr inbounds nuw i8, ptr %0, i64 32
  %8 = load ptr, ptr %7, align 8, !tbaa !43
  %.not11 = icmp eq ptr %8, null
  br i1 %.not11, label %10, label %9

9:                                                ; preds = %6
  tail call void @PyMem_Free(ptr noundef nonnull %8) #7
  br label %10

10:                                               ; preds = %9, %6
  %11 = getelementptr inbounds nuw i8, ptr %0, i64 40
  %12 = load ptr, ptr %11, align 8, !tbaa !71
  %.not.i13 = icmp eq ptr %12, null
  br i1 %.not.i13, label %Py_XDECREF.exit, label %13

13:                                               ; preds = %10
  %14 = load i32, ptr %12, align 8, !tbaa !18
  %.not.i.i = icmp sgt i32 %14, -1
  br i1 %.not.i.i, label %15, label %Py_XDECREF.exit

15:                                               ; preds = %13
  %16 = add nsw i32 %14, -1
  store i32 %16, ptr %12, align 8, !tbaa !18
  %17 = icmp eq i32 %16, 0
  br i1 %17, label %18, label %Py_XDECREF.exit

18:                                               ; preds = %15
  tail call void @_Py_Dealloc(ptr noundef nonnull %12) #7
  br label %Py_XDECREF.exit

Py_XDECREF.exit:                                  ; preds = %10, %13, %15, %18
  %.val = load ptr, ptr %2, align 8, !tbaa !24
  %19 = tail call ptr @PyType_GetSlot(ptr noundef %.val, i32 noundef 74) #7
  tail call void %19(ptr noundef nonnull %0) #7
  %20 = load i32, ptr %.val12, align 8, !tbaa !18
  %.not.i = icmp sgt i32 %20, -1
  br i1 %.not.i, label %21, label %Py_DECREF.exit

21:                                               ; preds = %Py_XDECREF.exit
  %22 = add nsw i32 %20, -1
  store i32 %22, ptr %.val12, align 8, !tbaa !18
  %23 = icmp eq i32 %22, 0
  br i1 %23, label %24, label %Py_DECREF.exit

24:                                               ; preds = %21
  tail call void @_Py_Dealloc(ptr noundef nonnull %.val12) #7
  br label %Py_DECREF.exit

Py_DECREF.exit:                                   ; preds = %Py_XDECREF.exit, %21, %24
  ret void
}